target datalayout = "e-m:e-p270:32:32-p271:32:32-p272:64:64-i64:64-i128:128-f80:128-n8:16:32:64-S128"
target triple = "x86_64-pc-linux-gnu"

%struct.darktable_t = type { %struct.dt_codepath_t, i32, i32, ptr, ptr, ptr, ptr, ptr, ptr, ptr, ptr, ptr, ptr, ptr, ptr, ptr, ptr, ptr, ptr, ptr, ptr, ptr, ptr, ptr, ptr, ptr, ptr, ptr, ptr, ptr, [64 x %struct.dt_pthread_mutex_t], %struct.dt_pthread_mutex_t, %struct.dt_pthread_mutex_t, %struct.dt_pthread_mutex_t, %struct.dt_pthread_mutex_t, %struct.dt_pthread_mutex_t, ptr, ptr, ptr, ptr, ptr, ptr, ptr, ptr, ptr, ptr, ptr, ptr, ptr, %struct.dt_lua_state_t, ptr, double, ptr, i32, [47 x i32], i32, i32, ptr, ptr, %struct.dt_sys_resources_t, %struct.dt_backthumb_t, %struct.dt_gimp_t }
%struct.dt_codepath_t = type { i8, [3 x i8] }
%struct.dt_pthread_mutex_t = type { %union.pthread_mutex_t }
%union.pthread_mutex_t = type { %struct.__pthread_mutex_s }
%struct.__pthread_mutex_s = type { i32, i32, i32, i32, i32, i16, i16, %struct.__pthread_internal_list }
%struct.__pthread_internal_list = type { ptr, ptr }
%struct.dt_lua_state_t = type { i32 }
%struct.dt_sys_resources_t = type { i64, i64, ptr, ptr, i32 }
%struct.dt_backthumb_t = type { double, double, i32, i32, i32, i32 }
%struct.dt_gimp_t = type { i32, ptr, ptr, i32, i32 }
%struct.dt_iop_buffer_dsc_t = type { i32, i32, i32, [6 x [6 x i8]], %struct.anon, [12 x i8], %struct.anon.0, [4 x float], i32, [12 x i8] }
%struct.anon = type { i16, i16 }
%struct.anon.0 = type { i32, [12 x i8], [4 x float] }
%struct.dt_image_t = type { i32, i32, float, float, float, float, float, float, float, [64 x i8], [64 x i8], [128 x i8], [64 x i8], [64 x i8], [64 x i8], [64 x i8], i64, i32, %union.dt_image_correction_data_t, [64 x i8], [64 x i8], [64 x i8], [128 x i8], i32, [256 x i8], i32, i32, i32, i32, i32, i32, i32, i32, i32, i32, float, i32, i32, i32, i32, i32, i32, i64, i64, i64, i64, i32, [12 x i8], %struct.dt_iop_buffer_dsc_t, [9 x float], ptr, i32, i32, %struct.dt_image_raw_parameters_t, %struct.dt_image_geoloc_t, %struct._color_harmony_t, i16, [4 x i16], i32, i32, float, float, [4 x float], [4 x [3 x float]], [4 x float], ptr, ptr, i32, i32, [8 x i8] }
%union.dt_image_correction_data_t = type { %struct.anon.2 }
%struct.anon.2 = type { i32, float, [11 x float], [11 x float], [11 x float], [11 x float], [11 x float] }
%struct.dt_image_raw_parameters_t = type { i32 }
%struct.dt_image_geoloc_t = type { double, double, double }
%struct._color_harmony_t = type { i32, i32, i32 }
%struct.dt_dev_histogram_stats_t = type { i32, i64, i32, i32 }
%struct.dt_iop_module_t = type { i32, ptr, ptr, ptr, ptr, ptr, ptr, ptr, ptr, ptr, ptr, ptr, ptr, ptr, ptr, ptr, ptr, ptr, ptr, ptr, ptr, ptr, ptr, ptr, ptr, ptr, ptr, ptr, ptr, ptr, ptr, ptr, ptr, ptr, ptr, ptr, ptr, ptr, ptr, ptr, ptr, ptr, ptr, ptr, ptr, ptr, ptr, ptr, ptr, ptr, ptr, ptr, ptr, ptr, ptr, ptr, ptr, [20 x i8], i32, i32, i32, i32, i32, i32, i32, [8 x i8], [4 x float], [4 x float], [4 x float], [4 x float], [4 x float], [4 x float], ptr, %struct.dt_dev_histogram_stats_t, [4 x i32], i32, i32, ptr, i32, i32, ptr, ptr, i32, ptr, %struct.dt_pthread_mutex_t, ptr, ptr, ptr, ptr, %struct.anon.5, ptr, ptr, ptr, ptr, ptr, ptr, ptr, i32, ptr, ptr, ptr, ptr, ptr, ptr, ptr, i32, ptr, i32, [128 x i8], i32, ptr, ptr, i32, [12 x i8] }
%struct.anon.5 = type { %struct.anon.6, %struct.anon.7 }
%struct.anon.6 = type { ptr, ptr }
%struct.anon.7 = type { ptr, i32 }
%struct.dt_lib_t = type { ptr, ptr, %struct.anon.17 }
%struct.anon.17 = type { %struct.anon.18, %struct.anon.19, %struct.anon.20, %struct.anon.21 }
%struct.anon.18 = type { ptr, ptr, ptr, ptr, ptr, i32, i32, i32, ptr, ptr, ptr, ptr, ptr }
%struct.anon.19 = type { ptr, ptr, i32 }
%struct.anon.20 = type { ptr }
%struct.anon.21 = type { i32 }
%struct.dt_develop_t = type { i32, i32, i32, ptr, double, double, i32, i32, i32, i32, i32, double, i32, i32, i32, ptr, ptr, [8 x i8], %struct.dt_image_t, i32, i32, %struct.dt_pthread_mutex_t, i32, ptr, i32, ptr, i32, ptr, ptr, i32, ptr, ptr, ptr, ptr, i32, i32, ptr, ptr, ptr, ptr, i32, i32, i32, float, float, ptr, i32, %struct.anon.8, %struct.dt_dev_chroma_t, %struct.anon.11, %struct.anon.12, %struct.anon.13, %struct.anon.14, %struct.anon.15, %struct.anon.16, ptr, ptr, %struct.dt_dev_viewport_t, %struct.dt_dev_viewport_t, i32, i32, i32, ptr, [8 x i8] }
%struct.anon.8 = type { %struct.dt_dev_proxy_exposure_t, ptr, %struct.anon.9, %struct.anon.10 }
%struct.dt_dev_proxy_exposure_t = type { ptr, ptr, ptr, ptr }
%struct.anon.9 = type { ptr, ptr, ptr, ptr, ptr, ptr, ptr, ptr, ptr }
%struct.anon.10 = type { ptr, ptr, ptr, ptr, ptr }
%struct.dt_dev_chroma_t = type { ptr, ptr, [4 x double], [4 x double], [4 x double], i32 }
%struct.anon.11 = type { ptr, ptr, ptr }
%struct.anon.12 = type { ptr, ptr, i32, i32, float, float, i32 }
%struct.anon.13 = type { ptr, ptr, i32, i32, i32, float }
%struct.anon.14 = type { ptr }
%struct.anon.15 = type { ptr, i32 }
%struct.anon.16 = type { ptr, ptr, ptr }
%struct.dt_dev_viewport_t = type { ptr, i32, i32, i32, i32, i32, double, double, double, i32, i32, i32, float, float, float, ptr }

@darktable = external global %struct.darktable_t, align 8

; Function Attrs: nounwind uwtable
define internal i32 @_request_color_pick(ptr noundef %0, ptr noundef %1, ptr noundef %2) #0 {
  %4 = alloca ptr, align 8
  %5 = alloca ptr, align 8
  %6 = alloca ptr, align 8
  store ptr %0, ptr %4, align 8, !tbaa !6
  store ptr %1, ptr %5, align 8, !tbaa !192
  store ptr %2, ptr %6, align 8, !tbaa !103
  %7 = load ptr, ptr %5, align 8, !tbaa !192
  %8 = getelementptr inbounds nuw %struct.dt_develop_t, ptr %7, i32 0, i32 0
  %9 = load i32, ptr %8, align 16, !tbaa !312
  %10 = icmp ne i32 %9, 0
  br i1 %10, label %11, label %42

11:                                               ; preds = %3
  %12 = load ptr, ptr %4, align 8, !tbaa !6
  %13 = load ptr, ptr %5, align 8, !tbaa !192
  %14 = getelementptr inbounds nuw %struct.dt_develop_t, ptr %13, i32 0, i32 16
  %15 = load ptr, ptr %14, align 16, !tbaa !222
  %16 = icmp eq ptr %12, %15
  br i1 %16, label %17, label %42

17:                                               ; preds = %11
  %18 = load ptr, ptr getelementptr inbounds nuw (%struct.darktable_t, ptr @darktable, i32 0, i32 10), align 8, !tbaa !116
  %19 = getelementptr inbounds nuw %struct.dt_lib_t, ptr %18, i32 0, i32 2
  %20 = getelementptr inbounds nuw %struct.anon.17, ptr %19, i32 0, i32 0
  %21 = getelementptr inbounds nuw %struct.anon.18, ptr %20, i32 0, i32 2
  %22 = load ptr, ptr %21, align 8, !tbaa !318
  %23 = icmp ne ptr %22, null
  br i1 %23, label %24, label %42

24:                                               ; preds = %17
  %25 = load ptr, ptr %6, align 8, !tbaa !103
  %26 = load ptr, ptr %5, align 8, !tbaa !192
  %27 = getelementptr inbounds nuw %struct.dt_develop_t, ptr %26, i32 0, i32 15
  %28 = load ptr, ptr %27, align 8, !tbaa !326
  %29 = icmp eq ptr %25, %28
  br i1 %29, label %30, label %42

30:                                               ; preds = %24
  %31 = load ptr, ptr %5, align 8, !tbaa !192
  %32 = getelementptr inbounds nuw %struct.dt_develop_t, ptr %31, i32 0, i32 15
  %33 = load ptr, ptr %32, align 8, !tbaa !326
  %34 = getelementptr inbounds nuw %struct.dt_iop_module_t, ptr %33, i32 0, i32 78
  %35 = load i32, ptr %34, align 16, !tbaa !226
  %36 = icmp ne i32 %35, 0
  br i1 %36, label %37, label %42

37:                                               ; preds = %30
  %38 = load ptr, ptr %6, align 8, !tbaa !103
  %39 = getelementptr inbounds nuw %struct.dt_iop_module_t, ptr %38, i32 0, i32 61
  %40 = load i32, ptr %39, align 8, !tbaa !115
  %41 = icmp ne i32 %40, 0
  br label %42

42:                                               ; preds = %37, %30, %24, %17, %11, %3
  %43 = phi i1 [ false, %30 ], [ false, %24 ], [ false, %17 ], [ false, %11 ], [ false, %3 ], [ %41, %37 ]
  %44 = zext i1 %43 to i32
  ret i32 %44
}