; Function Attrs: mustprogress nofree norecurse nosync nounwind willreturn memory(read, inaccessiblemem: none) uwtable
define internal fastcc range(i32 0, 2) i32 @_request_color_pick(ptr noundef readnone %0, ptr noundef readonly captures(none) %1, ptr noundef readonly %2) unnamed_addr #19 {
  %4 = load i32, ptr %1, align 16, !tbaa !286
  %.not = icmp eq i32 %4, 0
  br i1 %.not, label %25, label %5

5:                                                ; preds = %3
  %6 = getelementptr inbounds nuw i8, ptr %1, i64 96
  %7 = load ptr, ptr %6, align 16, !tbaa !196
  %8 = icmp eq ptr %0, %7
  br i1 %8, label %9, label %25

9:                                                ; preds = %5
  %10 = load ptr, ptr getelementptr inbounds nuw (i8, ptr @darktable, i64 72), align 8, !tbaa !108
  %11 = getelementptr inbounds nuw i8, ptr %10, i64 32
  %12 = load ptr, ptr %11, align 8, !tbaa !292
  %.not8 = icmp eq ptr %12, null
  br i1 %.not8, label %25, label %13

13:                                               ; preds = %9
  %14 = getelementptr inbounds nuw i8, ptr %1, i64 88
  %15 = load ptr, ptr %14, align 8, !tbaa !271
  %16 = icmp eq ptr %2, %15
  br i1 %16, label %17, label %25

17:                                               ; preds = %13
  %18 = getelementptr inbounds nuw i8, ptr %15, i64 672
  %19 = load i32, ptr %18, align 16, !tbaa !201
  %.not9 = icmp eq i32 %19, 0
  br i1 %.not9, label %25, label %20

20:                                               ; preds = %17
  %21 = getelementptr inbounds nuw i8, ptr %2, i64 488
  %22 = load i32, ptr %21, align 8, !tbaa !107
  %23 = icmp ne i32 %22, 0
  %24 = zext i1 %23 to i32
  br label %25

25:                                               ; preds = %20, %17, %13, %9, %5, %3
  %26 = phi i32 [ 0, %17 ], [ 0, %13 ], [ 0, %9 ], [ 0, %5 ], [ 0, %3 ], [ %24, %20 ]
  ret i32 %26
}